; Function Attrs: mustprogress uwtable
define hidden void @_ZN5osgeo4proj9operation20PointMotionOperationC1ERKS2_(ptr noundef nonnull align 8 dereferenceable(16) %0, ptr noundef nonnull align 8 dereferenceable(16) %1) unnamed_addr #0 align 2 personality ptr @__gxx_personality_v0 {
  %3 = getelementptr inbounds nuw i8, ptr %0, i64 16
  %4 = load ptr, ptr %1, align 8, !tbaa !3
  %5 = getelementptr i8, ptr %4, i64 -24
  %6 = load i64, ptr %5, align 8
  %7 = getelementptr inbounds i8, ptr %1, i64 %6
  tail call void @_ZN5osgeo4proj9operation19CoordinateOperationC2ERKS2_(ptr noundef nonnull align 8 dereferenceable(72) %3, ptr noundef nonnull align 8 dereferenceable(72) %7)
  store ptr getelementptr inbounds nuw inrange(-24, 32) (i8, ptr @_ZTCN5osgeo4proj9operation20PointMotionOperationE0_NS1_15SingleOperationE, i64 24), ptr %0, align 8, !tbaa !3
  store ptr getelementptr inbounds nuw inrange(-88, 56) (i8, ptr @_ZTCN5osgeo4proj9operation20PointMotionOperationE0_NS1_15SingleOperationE, i64 144), ptr %3, align 8, !tbaa !3
  %8 = getelementptr i8, ptr %0, i64 32
  store ptr getelementptr inbounds nuw inrange(-16, 24) (i8, ptr @_ZTCN5osgeo4proj9operation20PointMotionOperationE0_NS1_15SingleOperationE, i64 216), ptr %8, align 8, !tbaa !3
  %9 = getelementptr i8, ptr %0, i64 40
  store ptr getelementptr inbounds nuw inrange(-16, 24) (i8, ptr @_ZTCN5osgeo4proj9operation20PointMotionOperationE0_NS1_15SingleOperationE, i64 256), ptr %9, align 8, !tbaa !3
  %10 = getelementptr i8, ptr %0, i64 64
  store ptr getelementptr inbounds nuw inrange(-16, 24) (i8, ptr @_ZTCN5osgeo4proj9operation20PointMotionOperationE0_NS1_15SingleOperationE, i64 296), ptr %10, align 8, !tbaa !3
  %11 = getelementptr i8, ptr %0, i64 72
  store ptr getelementptr inbounds nuw inrange(-16, 24) (i8, ptr @_ZTCN5osgeo4proj9operation20PointMotionOperationE0_NS1_15SingleOperationE, i64 336), ptr %11, align 8, !tbaa !3
  %12 = getelementptr inbounds nuw i8, ptr %0, i64 8
  %13 = getelementptr inbounds nuw i8, ptr %1, i64 8
  %14 = load ptr, ptr %13, align 8, !tbaa !307
  invoke void @_ZSt11make_uniqueIN5osgeo4proj9operation15SingleOperation7PrivateEJRS4_EENSt8__detail9_MakeUniqIT_E15__single_objectEDpOT0_(ptr dead_on_unwind nonnull writable sret(%"class.std::unique_ptr.57") align 8 %12, ptr noundef nonnull align 8 dereferenceable(40) %14)
          to label %_ZN5osgeo4proj9operation15SingleOperationC2ERKS2_.exit unwind label %15

_ZN5osgeo4proj9operation15SingleOperationC2ERKS2_.exit: ; preds = %2
  store ptr getelementptr inbounds nuw inrange(-24, 72) (i8, ptr @_ZTVN5osgeo4proj9operation20PointMotionOperationE, i64 24), ptr %0, align 8, !tbaa !3
  store ptr getelementptr inbounds nuw inrange(-88, 56) (i8, ptr @_ZTVN5osgeo4proj9operation20PointMotionOperationE, i64 184), ptr %3, align 8, !tbaa !3
  store ptr getelementptr inbounds nuw inrange(-16, 24) (i8, ptr @_ZTVN5osgeo4proj9operation20PointMotionOperationE, i64 256), ptr %8, align 8, !tbaa !3
  store ptr getelementptr inbounds nuw inrange(-16, 24) (i8, ptr @_ZTVN5osgeo4proj9operation20PointMotionOperationE, i64 296), ptr %9, align 8, !tbaa !3
  store ptr getelementptr inbounds nuw inrange(-16, 24) (i8, ptr @_ZTVN5osgeo4proj9operation20PointMotionOperationE, i64 336), ptr %10, align 8, !tbaa !3
  store ptr getelementptr inbounds nuw inrange(-16, 24) (i8, ptr @_ZTVN5osgeo4proj9operation20PointMotionOperationE, i64 376), ptr %11, align 8, !tbaa !3
  ret void

15:                                               ; preds = %2
  %16 = landingpad { ptr, i32 }
          cleanup
  tail call void @_ZN5osgeo4proj9operation19CoordinateOperationD2Ev(ptr noundef nonnull align 8 dereferenceable(72) %3) #46
  resume { ptr, i32 } %16
}